(lp0
(lp1
I1000
aS'ashiwn'
p2
acdatetime
date
p3
(S'\x07\xdc\x08\x0f'
p4
tp5
Rp6
aa(lp7
I470
aS'guglu'
p8
ag3
(S'\x07\xdc\x08\x15'
p9
tp10
Rp11
aa(lp12
I460
aS'police'
p13
ag3
(S'\x07\xdc\x08\x15'
p14
tp15
Rp16
aa(lp17
I440
aS'foooli'
p18
ag3
(S'\x07\xdc\x08\x0f'
p19
tp20
Rp21
aa(lp22
I310
aS'polko'
p23
ag3
(S'\x07\xdc\x08\x14'
p24
tp25
Rp26
aa(lp27
I280
aS'kokl'
p28
ag3
(S'\x07\xdc\x08\x15'
p29
tp30
Rp31
aa(lp32
I270
aS'looki'
p33
ag3
(S'\x07\xdc\x08\x0f'
p34
tp35
Rp36
aa(lp37
I260
aS'lofjae'
p38
ag3
(S'\x07\xdc\x08\x14'
p39
tp40
Rp41
aa(lp42
I260
aS'kiel'
p43
ag3
(S'\x07\xdc\x08\x0f'
p44
tp45
Rp46
aa(lp47
I240
aS'lokfa'
p48
ag3
(S'\x07\xdc\x08\x14'
p49
tp50
Rp51
aa(lp52
I190
aS'lokia'
p53
ag3
(S'\x07\xdc\x08\x0f'
p54
tp55
Rp56
aa(lp57
I180
aS'kool'
p58
ag3
(S'\x07\xdc\x08\x0f'
p59
tp60
Rp61
aa(lp62
I180
aS'kfoae'
p63
ag3
(S'\x07\xdc\x08\x14'
p64
tp65
Rp66
aa(lp67
I170
aS'bolongh'
p68
ag3
(S'\x07\xdc\x08\x0f'
p69
tp70
Rp71
aa(lp72
I150
aS'bigiilo'
p73
ag3
(S'\x07\xdc\x08\x14'
p74
tp75
Rp76
aa(lp77
I140
aS'problem'
p78
ag3
(S'\x07\xdc\x08\x0f'
p79
tp80
Rp81
aa(lp82
I140
aS'bouglu'
p83
ag3
(S'\x07\xdc\x08\x0f'
p84
tp85
Rp86
aa(lp87
I140
aS'awman'
p88
ag3
(S'\x07\xdc\x08\x0f'
p89
tp90
Rp91
aa(lp92
I120
aS'moafk'
p93
ag3
(S'\x07\xdc\x08\x0f'
p94
tp95
Rp96
aa(lp97
I120
aS'billing'
p98
ag3
(S'\x07\xdc\x08\x0f'
p99
tp100
Rp101
aa(lp102
I120
aS'bazinger'
p103
ag3
(S'\x07\xdc\x08\x0f'
p104
tp105
Rp106
aa(lp107
I100
aS'boook'
p108
ag3
(S'\x07\xdc\x08\x0f'
p109
tp110
Rp111
aa(lp112
I90
aS'lfoe'
p113
ag3
(S'\x07\xdc\x08\x0f'
p114
tp115
Rp116
aa(lp117
I80
aS'junae'
p118
ag3
(S'\x07\xdc\x08\x0f'
p119
tp120
Rp121
aa(lp122
I80
aS'bsdgs'
p123
ag3
(S'\x07\xdc\x08\x0f'
p124
tp125
Rp126
aa(lp127
I50
aS'killi'
p128
ag3
(S'\x07\xdc\x08\x0f'
p129
tp130
Rp131
aa(lp132
I40
aS'kola'
p133
ag3
(S'\x07\xdc\x08\x0f'
p134
tp135
Rp136
aa(lp137
I40
aS'jacok'
p138
ag3
(S'\x07\xdc\x08\x0f'
p139
tp140
Rp141
aa(lp142
I30
aS'kokoko'
p143
ag3
(S'\x07\xdc\x08\x0f'
p144
tp145
Rp146
aa(lp147
I30
aS'khgf'
p148
ag3
(S'\x07\xdc\x08\x0f'
p149
tp150
Rp151
aa(lp152
I20
aS'nih'
p153
ag3
(S'\x07\xdc\x08\x0f'
p154
tp155
Rp156
aa(lp157
I20
aS'lhhh'
p158
ag3
(S'\x07\xdc\x08\x0f'
p159
tp160
Rp161
aa(lp162
I20
aS'kkl'
p163
ag3
(S'\x07\xdc\x08\x0f'
p164
tp165
Rp166
aa(lp167
I20
aS'binag'
p168
ag3
(S'\x07\xdc\x08\x0f'
p169
tp170
Rp171
aa(lp172
I10
aS'lliii'
p173
ag3
(S'\x07\xdc\x08\x0f'
p174
tp175
Rp176
aa(lp177
I10
aS'ko'
p178
ag3
(S'\x07\xdc\x08\x0f'
p179
tp180
Rp181
aa(lp182
I10
aS'klkpk'
p183
ag3
(S'\x07\xdc\x08\x0f'
p184
tp185
Rp186
aa(lp187
I10
aS'jijj'
p188
ag3
(S'\x07\xdc\x08\x0f'
p189
tp190
Rp191
aa.